target datalayout = "e-m:e-p270:32:32-p271:32:32-p272:64:64-i64:64-i128:128-f80:128-n8:16:32:64-S128"
target triple = "x86_64-pc-linux-gnu"

%struct.JSON_Generator_StateStruct = type { i64, i64, i64, i64, i64, i64, i64, i64, i64, i8, i8, i8, i8 }
%struct.FBufferStruct = type { i32, i64, i64, i64, ptr, i64 }
%struct.generate_json_data = type { ptr, i64, ptr, i64, ptr }
%struct.RBasic = type { i64, i64 }
%struct.hash_foreach_arg = type { ptr, i32 }

@.str.53 = private unnamed_addr constant [7 x i8] c"String\00", align 1
@.str.64 = private unnamed_addr constant [5 x i8] c"to_s\00", align 1
@i_to_s = internal global i64 0, align 8
@rb_cString = external global i64, align 8

; Function Attrs: inlinehint nounwind sspstrong willreturn memory(none) uwtable
define internal zeroext i1 @RB_IMMEDIATE_P(i64 noundef %0) #6 {
  %2 = alloca i64, align 8
  store i64 %0, ptr %2, align 8, !tbaa !6
  %3 = load i64, ptr %2, align 8, !tbaa !6
  %4 = and i64 %3, 7
  %5 = icmp ne i64 %4, 0
  ret i1 %5
}

; Function Attrs: inlinehint nounwind sspstrong willreturn memory(none) uwtable
define internal zeroext i1 @RB_FLONUM_P(i64 noundef %0) #6 {
  %2 = alloca i64, align 8
  store i64 %0, ptr %2, align 8, !tbaa !6
  %3 = load i64, ptr %2, align 8, !tbaa !6
  %4 = and i64 %3, 3
  %5 = icmp eq i64 %4, 2
  ret i1 %5
}

; Function Attrs: inlinehint nounwind sspstrong willreturn memory(none) uwtable
define internal zeroext i1 @RB_STATIC_SYM_P(i64 noundef %0) #6 {
  %2 = alloca i64, align 8
  %3 = alloca i64, align 8
  store i64 %0, ptr %2, align 8, !tbaa !6
  call void @llvm.lifetime.start.p0(i64 8, ptr %3) #27
  store i64 255, ptr %3, align 8, !tbaa !6
  %4 = load i64, ptr %2, align 8, !tbaa !6
  %5 = and i64 %4, 255
  %6 = icmp eq i64 %5, 12
  call void @llvm.lifetime.end.p0(i64 8, ptr %3) #27
  ret i1 %6
}

; Function Attrs: inlinehint nounwind sspstrong willreturn memory(none) uwtable
define internal zeroext i1 @RB_FIXNUM_P(i64 noundef %0) #6 {
  %2 = alloca i64, align 8
  store i64 %0, ptr %2, align 8, !tbaa !6
  %3 = load i64, ptr %2, align 8, !tbaa !6
  %4 = and i64 %3, 1
  %5 = icmp ne i64 %4, 0
  ret i1 %5
}

; Function Attrs: inlinehint nounwind sspstrong willreturn memory(read) uwtable
define internal i32 @RB_BUILTIN_TYPE(i64 noundef %0) #9 {
  %2 = alloca i64, align 8
  %3 = alloca i64, align 8
  store i64 %0, ptr %2, align 8, !tbaa !6
  call void @llvm.lifetime.start.p0(i64 8, ptr %3) #27
  %4 = load i64, ptr %2, align 8, !tbaa !6
  %5 = inttoptr i64 %4 to ptr
  %6 = getelementptr inbounds nuw %struct.RBasic, ptr %5, i32 0, i32 0
  %7 = load i64, ptr %6, align 8, !tbaa !50
  %8 = and i64 %7, 31
  store i64 %8, ptr %3, align 8, !tbaa !6
  %9 = load i64, ptr %3, align 8, !tbaa !6
  %10 = trunc i64 %9 to i32
  call void @llvm.lifetime.end.p0(i64 8, ptr %3) #27
  ret i32 %10
}

; Function Attrs: inlinehint nounwind sspstrong willreturn memory(none) uwtable
define internal zeroext i1 @RB_SPECIAL_CONST_P(i64 noundef %0) #6 {
  %2 = alloca i64, align 8
  store i64 %0, ptr %2, align 8, !tbaa !6
  %3 = load i64, ptr %2, align 8, !tbaa !6
  %4 = icmp eq i64 %3, 0
  br i1 %4, label %8, label %5

5:                                                ; preds = %1
  %6 = load i64, ptr %2, align 8, !tbaa !6
  %7 = call zeroext i1 @RB_IMMEDIATE_P(i64 noundef %6) #28
  br label %8

8:                                                ; preds = %5, %1
  %9 = phi i1 [ true, %1 ], [ %7, %5 ]
  ret i1 %9
}

; Function Attrs: inlinehint nounwind sspstrong uwtable
define internal void @fbuffer_inc_capa(ptr noundef %0, i64 noundef %1) #4 {
  %3 = alloca ptr, align 8
  %4 = alloca i64, align 8
  store ptr %0, ptr %3, align 8, !tbaa !57
  store i64 %1, ptr %4, align 8, !tbaa !6
  %5 = load i64, ptr %4, align 8, !tbaa !6
  %6 = load ptr, ptr %3, align 8, !tbaa !57
  %7 = getelementptr inbounds nuw %struct.FBufferStruct, ptr %6, i32 0, i32 3
  %8 = load i64, ptr %7, align 8, !tbaa !64
  %9 = load ptr, ptr %3, align 8, !tbaa !57
  %10 = getelementptr inbounds nuw %struct.FBufferStruct, ptr %9, i32 0, i32 2
  %11 = load i64, ptr %10, align 8, !tbaa !65
  %12 = sub i64 %8, %11
  %13 = icmp ugt i64 %5, %12
  %14 = xor i1 %13, true
  %15 = xor i1 %14, true
  %16 = zext i1 %15 to i32
  %17 = sext i32 %16 to i64
  %18 = call i64 @llvm.expect.i64(i64 %17, i64 0)
  %19 = icmp ne i64 %18, 0
  br i1 %19, label %20, label %23

20:                                               ; preds = %2
  %21 = load ptr, ptr %3, align 8, !tbaa !57
  %22 = load i64, ptr %4, align 8, !tbaa !6
  call void @fbuffer_do_inc_capa(ptr noundef %21, i64 noundef %22)
  br label %23

23:                                               ; preds = %20, %2
  ret void
}

; Function Attrs: inlinehint nounwind sspstrong willreturn memory(read) uwtable
define internal i64 @RBASIC_CLASS(i64 noundef %0) #9 {
  %2 = alloca i64, align 8
  store i64 %0, ptr %2, align 8, !tbaa !6
  %3 = load i64, ptr %2, align 8, !tbaa !6
  %4 = inttoptr i64 %3 to ptr
  %5 = getelementptr inbounds nuw %struct.RBasic, ptr %4, i32 0, i32 1
  %6 = load i64, ptr %5, align 8, !tbaa !69
  ret i64 %6
}

; Function Attrs: inlinehint nounwind sspstrong willreturn memory(read) uwtable
define internal i32 @rb_type(i64 noundef %0) #9 {
  %2 = alloca i32, align 4
  %3 = alloca i64, align 8
  store i64 %0, ptr %3, align 8, !tbaa !6
  %4 = load i64, ptr %3, align 8, !tbaa !6
  %5 = call zeroext i1 @RB_SPECIAL_CONST_P(i64 noundef %4) #28
  br i1 %5, label %9, label %6

6:                                                ; preds = %1
  %7 = load i64, ptr %3, align 8, !tbaa !6
  %8 = call i32 @RB_BUILTIN_TYPE(i64 noundef %7) #32
  store i32 %8, ptr %2, align 4
  br label %36

9:                                                ; preds = %1
  %10 = load i64, ptr %3, align 8, !tbaa !6
  %11 = icmp eq i64 %10, 0
  br i1 %11, label %12, label %13

12:                                               ; preds = %9
  store i32 19, ptr %2, align 4
  br label %36

13:                                               ; preds = %9
  %14 = load i64, ptr %3, align 8, !tbaa !6
  %15 = icmp eq i64 %14, 4
  br i1 %15, label %16, label %17

16:                                               ; preds = %13
  store i32 17, ptr %2, align 4
  br label %36

17:                                               ; preds = %13
  %18 = load i64, ptr %3, align 8, !tbaa !6
  %19 = icmp eq i64 %18, 20
  br i1 %19, label %20, label %21

20:                                               ; preds = %17
  store i32 18, ptr %2, align 4
  br label %36

21:                                               ; preds = %17
  %22 = load i64, ptr %3, align 8, !tbaa !6
  %23 = icmp eq i64 %22, 36
  br i1 %23, label %24, label %25

24:                                               ; preds = %21
  store i32 22, ptr %2, align 4
  br label %36

25:                                               ; preds = %21
  %26 = load i64, ptr %3, align 8, !tbaa !6
  %27 = call zeroext i1 @RB_FIXNUM_P(i64 noundef %26) #28
  br i1 %27, label %28, label %29

28:                                               ; preds = %25
  store i32 21, ptr %2, align 4
  br label %36

29:                                               ; preds = %25
  %30 = load i64, ptr %3, align 8, !tbaa !6
  %31 = call zeroext i1 @RB_STATIC_SYM_P(i64 noundef %30) #28
  br i1 %31, label %32, label %33

32:                                               ; preds = %29
  store i32 20, ptr %2, align 4
  br label %36

33:                                               ; preds = %29
  %34 = load i64, ptr %3, align 8, !tbaa !6
  %35 = call zeroext i1 @RB_FLONUM_P(i64 noundef %34) #28
  call void @llvm.assume(i1 %35)
  store i32 4, ptr %2, align 4
  br label %36

36:                                               ; preds = %33, %32, %28, %24, %20, %16, %12, %6
  %37 = load i32, ptr %2, align 4
  ret i32 %37
}

; Function Attrs: inlinehint nounwind sspstrong uwtable
define internal void @fbuffer_append_char(ptr noundef %0, i8 noundef signext %1) #4 {
  %3 = alloca ptr, align 8
  %4 = alloca i8, align 1
  store ptr %0, ptr %3, align 8, !tbaa !57
  store i8 %1, ptr %4, align 1, !tbaa !68
  %5 = load ptr, ptr %3, align 8, !tbaa !57
  call void @fbuffer_inc_capa(ptr noundef %5, i64 noundef 1)
  %6 = load i8, ptr %4, align 1, !tbaa !68
  %7 = load ptr, ptr %3, align 8, !tbaa !57
  %8 = getelementptr inbounds nuw %struct.FBufferStruct, ptr %7, i32 0, i32 4
  %9 = load ptr, ptr %8, align 8, !tbaa !63
  %10 = load ptr, ptr %3, align 8, !tbaa !57
  %11 = getelementptr inbounds nuw %struct.FBufferStruct, ptr %10, i32 0, i32 2
  %12 = load i64, ptr %11, align 8, !tbaa !65
  %13 = getelementptr inbounds nuw i8, ptr %9, i64 %12
  store i8 %6, ptr %13, align 1, !tbaa !68
  %14 = load ptr, ptr %3, align 8, !tbaa !57
  %15 = getelementptr inbounds nuw %struct.FBufferStruct, ptr %14, i32 0, i32 2
  %16 = load i64, ptr %15, align 8, !tbaa !65
  %17 = add i64 %16, 1
  store i64 %17, ptr %15, align 8, !tbaa !65
  ret void
}

; Function Attrs: nounwind sspstrong uwtable
define internal i32 @json_object_i(i64 noundef %0, i64 noundef %1, i64 noundef %2) #0 {
  %4 = alloca i64, align 8
  %5 = alloca i64, align 8
  %6 = alloca i64, align 8
  %7 = alloca ptr, align 8
  %8 = alloca ptr, align 8
  %9 = alloca ptr, align 8
  %10 = alloca ptr, align 8
  %11 = alloca i64, align 8
  %12 = alloca i32, align 4
  %13 = alloca i64, align 8
  store i64 %0, ptr %4, align 8, !tbaa !6
  store i64 %1, ptr %5, align 8, !tbaa !6
  store i64 %2, ptr %6, align 8, !tbaa !6
  call void @llvm.lifetime.start.p0(i64 8, ptr %7) #27
  %14 = load i64, ptr %6, align 8, !tbaa !6
  %15 = inttoptr i64 %14 to ptr
  store ptr %15, ptr %7, align 8, !tbaa !79
  call void @llvm.lifetime.start.p0(i64 8, ptr %8) #27
  %16 = load ptr, ptr %7, align 8, !tbaa !79
  %17 = getelementptr inbounds nuw %struct.hash_foreach_arg, ptr %16, i32 0, i32 0
  %18 = load ptr, ptr %17, align 8, !tbaa !70
  store ptr %18, ptr %8, align 8, !tbaa !58
  call void @llvm.lifetime.start.p0(i64 8, ptr %9) #27
  %19 = load ptr, ptr %8, align 8, !tbaa !58
  %20 = getelementptr inbounds nuw %struct.generate_json_data, ptr %19, i32 0, i32 0
  %21 = load ptr, ptr %20, align 8, !tbaa !37
  store ptr %21, ptr %9, align 8, !tbaa !57
  call void @llvm.lifetime.start.p0(i64 8, ptr %10) #27
  %22 = load ptr, ptr %8, align 8, !tbaa !58
  %23 = getelementptr inbounds nuw %struct.generate_json_data, ptr %22, i32 0, i32 2
  %24 = load ptr, ptr %23, align 8, !tbaa !41
  store ptr %24, ptr %10, align 8, !tbaa !12
  call void @llvm.lifetime.start.p0(i64 8, ptr %11) #27
  %25 = load ptr, ptr %10, align 8, !tbaa !12
  %26 = getelementptr inbounds nuw %struct.JSON_Generator_StateStruct, ptr %25, i32 0, i32 7
  %27 = load i64, ptr %26, align 8, !tbaa !32
  store i64 %27, ptr %11, align 8, !tbaa !6
  call void @llvm.lifetime.start.p0(i64 4, ptr %12) #27
  %28 = load ptr, ptr %7, align 8, !tbaa !79
  %29 = getelementptr inbounds nuw %struct.hash_foreach_arg, ptr %28, i32 0, i32 1
  %30 = load i32, ptr %29, align 8, !tbaa !72
  %31 = icmp sgt i32 %30, 0
  br i1 %31, label %32, label %34

32:                                               ; preds = %3
  %33 = load ptr, ptr %9, align 8, !tbaa !57
  call void @fbuffer_append_char(ptr noundef %33, i8 noundef signext 44)
  br label %34

34:                                               ; preds = %32, %3
  %35 = load ptr, ptr %10, align 8, !tbaa !12
  %36 = getelementptr inbounds nuw %struct.JSON_Generator_StateStruct, ptr %35, i32 0, i32 3
  %37 = load i64, ptr %36, align 8, !tbaa !22
  %38 = icmp ne i64 %37, 0
  %39 = xor i1 %38, true
  %40 = xor i1 %39, true
  %41 = zext i1 %40 to i32
  %42 = sext i32 %41 to i64
  %43 = call i64 @llvm.expect.i64(i64 %42, i64 0)
  %44 = icmp ne i64 %43, 0
  br i1 %44, label %45, label %50

45:                                               ; preds = %34
  %46 = load ptr, ptr %9, align 8, !tbaa !57
  %47 = load ptr, ptr %10, align 8, !tbaa !12
  %48 = getelementptr inbounds nuw %struct.JSON_Generator_StateStruct, ptr %47, i32 0, i32 3
  %49 = load i64, ptr %48, align 8, !tbaa !22
  call void @fbuffer_append_str(ptr noundef %46, i64 noundef %49)
  br label %50

50:                                               ; preds = %45, %34
  %51 = load ptr, ptr %10, align 8, !tbaa !12
  %52 = getelementptr inbounds nuw %struct.JSON_Generator_StateStruct, ptr %51, i32 0, i32 0
  %53 = load i64, ptr %52, align 8, !tbaa !17
  %54 = icmp ne i64 %53, 0
  %55 = xor i1 %54, true
  %56 = xor i1 %55, true
  %57 = zext i1 %56 to i32
  %58 = sext i32 %57 to i64
  %59 = call i64 @llvm.expect.i64(i64 %58, i64 0)
  %60 = icmp ne i64 %59, 0
  br i1 %60, label %61, label %76

61:                                               ; preds = %50
  store i32 0, ptr %12, align 4, !tbaa !10
  br label %62

62:                                               ; preds = %72, %61
  %63 = load i32, ptr %12, align 4, !tbaa !10
  %64 = sext i32 %63 to i64
  %65 = load i64, ptr %11, align 8, !tbaa !6
  %66 = icmp slt i64 %64, %65
  br i1 %66, label %67, label %75

67:                                               ; preds = %62
  %68 = load ptr, ptr %9, align 8, !tbaa !57
  %69 = load ptr, ptr %10, align 8, !tbaa !12
  %70 = getelementptr inbounds nuw %struct.JSON_Generator_StateStruct, ptr %69, i32 0, i32 0
  %71 = load i64, ptr %70, align 8, !tbaa !17
  call void @fbuffer_append_str(ptr noundef %68, i64 noundef %71)
  br label %72

72:                                               ; preds = %67
  %73 = load i32, ptr %12, align 4, !tbaa !10
  %74 = add nsw i32 %73, 1
  store i32 %74, ptr %12, align 4, !tbaa !10
  br label %62

75:                                               ; preds = %62
  br label %76

76:                                               ; preds = %75, %50
  call void @llvm.lifetime.start.p0(i64 8, ptr %13) #27
  %77 = load i64, ptr %4, align 8, !tbaa !6
  %78 = call i32 @rb_type(i64 noundef %77) #32
  switch i32 %78, label %100 [
    i32 5, label %79
    i32 20, label %97
  ]

79:                                               ; preds = %76
  %80 = load i64, ptr %4, align 8, !tbaa !6
  %81 = call i64 @RBASIC_CLASS(i64 noundef %80) #32
  %82 = load i64, ptr @rb_cString, align 8, !tbaa !6
  %83 = icmp eq i64 %81, %82
  %84 = xor i1 %83, true
  %85 = xor i1 %84, true
  %86 = zext i1 %85 to i32
  %87 = sext i32 %86 to i64
  %88 = call i64 @llvm.expect.i64(i64 %87, i64 1)
  %89 = icmp ne i64 %88, 0
  br i1 %89, label %90, label %92

90:                                               ; preds = %79
  %91 = load i64, ptr %4, align 8, !tbaa !6
  store i64 %91, ptr %13, align 8, !tbaa !6
  br label %96

92:                                               ; preds = %79
  %93 = load i64, ptr %4, align 8, !tbaa !6
  %94 = load i64, ptr @i_to_s, align 8, !tbaa !6
  %95 = call i64 (i64, i64, i32, ...) @rb_funcall(i64 noundef %93, i64 noundef %94, i32 noundef 0)
  store i64 %95, ptr %13, align 8, !tbaa !6
  br label %96

96:                                               ; preds = %92, %90
  br label %103

97:                                               ; preds = %76
  %98 = load i64, ptr %4, align 8, !tbaa !6
  %99 = call i64 @rb_sym2str(i64 noundef %98)
  store i64 %99, ptr %13, align 8, !tbaa !6
  br label %103

100:                                              ; preds = %76
  %101 = load i64, ptr %4, align 8, !tbaa !6
  %102 = call i64 @rb_convert_type(i64 noundef %101, i32 noundef 5, ptr noundef @.str.53, ptr noundef @.str.64)
  store i64 %102, ptr %13, align 8, !tbaa !6
  br label %103

103:                                              ; preds = %100, %97, %96
  %104 = load i64, ptr %13, align 8, !tbaa !6
  %105 = call i64 @RBASIC_CLASS(i64 noundef %104) #32
  %106 = load i64, ptr @rb_cString, align 8, !tbaa !6
  %107 = icmp eq i64 %105, %106
  %108 = xor i1 %107, true
  %109 = xor i1 %108, true
  %110 = zext i1 %109 to i32
  %111 = sext i32 %110 to i64
  %112 = call i64 @llvm.expect.i64(i64 %111, i64 1)
  %113 = icmp ne i64 %112, 0
  br i1 %113, label %114, label %119

114:                                              ; preds = %103
  %115 = load ptr, ptr %9, align 8, !tbaa !57
  %116 = load ptr, ptr %8, align 8, !tbaa !58
  %117 = load ptr, ptr %10, align 8, !tbaa !12
  %118 = load i64, ptr %13, align 8, !tbaa !6
  call void @generate_json_string(ptr noundef %115, ptr noundef %116, ptr noundef %117, i64 noundef %118)
  br label %124

119:                                              ; preds = %103
  %120 = load ptr, ptr %9, align 8, !tbaa !57
  %121 = load ptr, ptr %8, align 8, !tbaa !58
  %122 = load ptr, ptr %10, align 8, !tbaa !12
  %123 = load i64, ptr %13, align 8, !tbaa !6
  call void @generate_json(ptr noundef %120, ptr noundef %121, ptr noundef %122, i64 noundef %123)
  br label %124

124:                                              ; preds = %119, %114
  %125 = load ptr, ptr %10, align 8, !tbaa !12
  %126 = getelementptr inbounds nuw %struct.JSON_Generator_StateStruct, ptr %125, i32 0, i32 2
  %127 = load i64, ptr %126, align 8, !tbaa !21
  %128 = icmp ne i64 %127, 0
  %129 = xor i1 %128, true
  %130 = xor i1 %129, true
  %131 = zext i1 %130 to i32
  %132 = sext i32 %131 to i64
  %133 = call i64 @llvm.expect.i64(i64 %132, i64 0)
  %134 = icmp ne i64 %133, 0
  br i1 %134, label %135, label %140

135:                                              ; preds = %124
  %136 = load ptr, ptr %9, align 8, !tbaa !57
  %137 = load ptr, ptr %10, align 8, !tbaa !12
  %138 = getelementptr inbounds nuw %struct.JSON_Generator_StateStruct, ptr %137, i32 0, i32 2
  %139 = load i64, ptr %138, align 8, !tbaa !21
  call void @fbuffer_append_str(ptr noundef %136, i64 noundef %139)
  br label %140

140:                                              ; preds = %135, %124
  %141 = load ptr, ptr %9, align 8, !tbaa !57
  call void @fbuffer_append_char(ptr noundef %141, i8 noundef signext 58)
  %142 = load ptr, ptr %10, align 8, !tbaa !12
  %143 = getelementptr inbounds nuw %struct.JSON_Generator_StateStruct, ptr %142, i32 0, i32 1
  %144 = load i64, ptr %143, align 8, !tbaa !20
  %145 = icmp ne i64 %144, 0
  %146 = xor i1 %145, true
  %147 = xor i1 %146, true
  %148 = zext i1 %147 to i32
  %149 = sext i32 %148 to i64
  %150 = call i64 @llvm.expect.i64(i64 %149, i64 0)
  %151 = icmp ne i64 %150, 0
  br i1 %151, label %152, label %157

152:                                              ; preds = %140
  %153 = load ptr, ptr %9, align 8, !tbaa !57
  %154 = load ptr, ptr %10, align 8, !tbaa !12
  %155 = getelementptr inbounds nuw %struct.JSON_Generator_StateStruct, ptr %154, i32 0, i32 1
  %156 = load i64, ptr %155, align 8, !tbaa !20
  call void @fbuffer_append_str(ptr noundef %153, i64 noundef %156)
  br label %157

157:                                              ; preds = %152, %140
  %158 = load ptr, ptr %9, align 8, !tbaa !57
  %159 = load ptr, ptr %8, align 8, !tbaa !58
  %160 = load ptr, ptr %10, align 8, !tbaa !12
  %161 = load i64, ptr %5, align 8, !tbaa !6
  call void @generate_json(ptr noundef %158, ptr noundef %159, ptr noundef %160, i64 noundef %161)
  %162 = load ptr, ptr %7, align 8, !tbaa !79
  %163 = getelementptr inbounds nuw %struct.hash_foreach_arg, ptr %162, i32 0, i32 1
  %164 = load i32, ptr %163, align 8, !tbaa !72
  %165 = add nsw i32 %164, 1
  store i32 %165, ptr %163, align 8, !tbaa !72
  call void @llvm.lifetime.end.p0(i64 8, ptr %13) #27
  call void @llvm.lifetime.end.p0(i64 4, ptr %12) #27
  call void @llvm.lifetime.end.p0(i64 8, ptr %11) #27
  call void @llvm.lifetime.end.p0(i64 8, ptr %10) #27
  call void @llvm.lifetime.end.p0(i64 8, ptr %9) #27
  call void @llvm.lifetime.end.p0(i64 8, ptr %8) #27
  call void @llvm.lifetime.end.p0(i64 8, ptr %7) #27
  ret i32 0
}