; Function Attrs: nounwind sspstrong uwtable
define internal noundef i32 @json_object_i(i64 noundef %0, i64 noundef %1, i64 noundef %2) #0 {
  %4 = inttoptr i64 %2 to ptr
  %5 = load ptr, ptr %4, align 8, !tbaa !64
  %6 = load ptr, ptr %5, align 8, !tbaa !48
  %7 = getelementptr inbounds nuw i8, ptr %5, i64 16
  %8 = load ptr, ptr %7, align 8, !tbaa !53
  %9 = getelementptr inbounds nuw i8, ptr %8, i64 56
  %10 = load i64, ptr %9, align 8, !tbaa !39
  %11 = getelementptr inbounds nuw i8, ptr %4, i64 8
  %12 = load i32, ptr %11, align 8, !tbaa !67
  %13 = icmp sgt i32 %12, 0
  br i1 %13, label %14, label %27

14:                                               ; preds = %3
  %15 = getelementptr inbounds nuw i8, ptr %6, i64 24
  %16 = load i64, ptr %15, align 8, !tbaa !47
  %17 = getelementptr inbounds nuw i8, ptr %6, i64 16
  %18 = load i64, ptr %17, align 8, !tbaa !56
  %19 = icmp eq i64 %16, %18
  br i1 %19, label %20, label %fbuffer_append_char.exit, !prof !58

20:                                               ; preds = %14
  tail call fastcc void @fbuffer_do_inc_capa(ptr noundef nonnull %6, i64 noundef 1)
  %.pre.i = load i64, ptr %17, align 8, !tbaa !56
  br label %fbuffer_append_char.exit

fbuffer_append_char.exit:                         ; preds = %14, %20
  %21 = phi i64 [ %18, %14 ], [ %.pre.i, %20 ]
  %22 = getelementptr inbounds nuw i8, ptr %6, i64 32
  %23 = load ptr, ptr %22, align 8, !tbaa !46
  %24 = getelementptr inbounds nuw i8, ptr %23, i64 %21
  store i8 44, ptr %24, align 1, !tbaa !59
  %25 = load i64, ptr %17, align 8, !tbaa !56
  %26 = add i64 %25, 1
  store i64 %26, ptr %17, align 8, !tbaa !56
  br label %27

27:                                               ; preds = %fbuffer_append_char.exit, %3
  %28 = getelementptr inbounds nuw i8, ptr %8, i64 24
  %29 = load i64, ptr %28, align 8, !tbaa !28
  %.not = icmp eq i64 %29, 0
  br i1 %.not, label %31, label %30, !prof !68

30:                                               ; preds = %27
  tail call fastcc void @fbuffer_append_str(ptr noundef %6, i64 noundef %29)
  br label %31

31:                                               ; preds = %30, %27
  %32 = load i64, ptr %8, align 8, !tbaa !25
  %.not46 = icmp eq i64 %32, 0
  br i1 %.not46, label %.loopexit, label %.preheader, !prof !68

.preheader:                                       ; preds = %31
  %33 = icmp sgt i64 %10, 0
  br i1 %33, label %.lr.ph, label %.loopexit

.lr.ph:                                           ; preds = %.preheader, %.lr.ph
  %indvars.iv = phi i64 [ %indvars.iv.next, %.lr.ph ], [ 0, %.preheader ]
  %34 = load i64, ptr %8, align 8, !tbaa !25
  tail call fastcc void @fbuffer_append_str(ptr noundef %6, i64 noundef %34)
  %indvars.iv.next = add nuw nsw i64 %indvars.iv, 1
  %exitcond.not = icmp eq i64 %indvars.iv.next, %10
  br i1 %exitcond.not, label %.loopexit, label %.lr.ph

.loopexit:                                        ; preds = %.lr.ph, %.preheader, %31
  %35 = icmp eq i64 %0, 0
  %36 = and i64 %0, 7
  %37 = icmp ne i64 %36, 0
  %38 = or i1 %35, %37
  br i1 %38, label %39, label %rb_type.exit

39:                                               ; preds = %.loopexit
  %40 = tail call i64 @llvm.fshl.i64(i64 %0, i64 %0, i64 62)
  switch i64 %40, label %41 [
    i64 0, label %rb_type.exit.thread
    i64 1, label %rb_type.exit.thread
    i64 5, label %rb_type.exit.thread
    i64 9, label %rb_type.exit.thread
  ]

41:                                               ; preds = %39
  %42 = and i64 %0, 255
  %or.cond = icmp eq i64 %42, 12
  br i1 %or.cond, label %rb_type.exit.thread52, label %rb_type.exit.thread

rb_type.exit:                                     ; preds = %.loopexit
  %43 = inttoptr i64 %0 to ptr
  %44 = load i64, ptr %43, align 8, !tbaa !23
  %45 = trunc i64 %44 to i32
  %46 = and i32 %45, 31
  switch i32 %46, label %rb_type.exit.thread [
    i32 5, label %47
    i32 20, label %rb_type.exit.thread52
  ]

47:                                               ; preds = %rb_type.exit
  %48 = getelementptr inbounds nuw i8, ptr %43, i64 8
  %49 = load i64, ptr %48, align 8, !tbaa !60
  %50 = load i64, ptr @rb_cString, align 8, !tbaa !6
  %51 = icmp eq i64 %49, %50
  br i1 %51, label %57, label %52, !prof !68

52:                                               ; preds = %47
  %53 = load i64, ptr @i_to_s, align 8, !tbaa !6
  %54 = tail call i64 (i64, i64, i32, ...) @rb_funcall(i64 noundef %0, i64 noundef %53, i32 noundef 0) #22
  br label %57

rb_type.exit.thread52:                            ; preds = %41, %rb_type.exit
  %55 = tail call i64 @rb_sym2str(i64 noundef %0) #22
  br label %57

rb_type.exit.thread:                              ; preds = %39, %39, %39, %41, %39, %rb_type.exit
  %56 = tail call i64 @rb_convert_type(i64 noundef %0, i32 noundef 5, ptr noundef nonnull @.str.53, ptr noundef nonnull @.str.64) #22
  br label %57

57:                                               ; preds = %47, %52, %rb_type.exit.thread, %rb_type.exit.thread52
  %.0 = phi i64 [ %56, %rb_type.exit.thread ], [ %55, %rb_type.exit.thread52 ], [ %54, %52 ], [ %0, %47 ]
  %58 = inttoptr i64 %.0 to ptr
  %59 = getelementptr inbounds nuw i8, ptr %58, i64 8
  %60 = load i64, ptr %59, align 8, !tbaa !60
  %61 = load i64, ptr @rb_cString, align 8, !tbaa !6
  %62 = icmp eq i64 %60, %61
  br i1 %62, label %63, label %64, !prof !68

63:                                               ; preds = %57
  tail call void @generate_json_string(ptr noundef %6, ptr nonnull poison, ptr noundef nonnull %8, i64 noundef %.0)
  br label %65

64:                                               ; preds = %57
  tail call void @generate_json(ptr noundef %6, ptr noundef nonnull %5, ptr noundef nonnull %8, i64 noundef %.0)
  br label %65

65:                                               ; preds = %64, %63
  %66 = getelementptr inbounds nuw i8, ptr %8, i64 16
  %67 = load i64, ptr %66, align 8, !tbaa !27
  %.not47 = icmp eq i64 %67, 0
  br i1 %.not47, label %69, label %68, !prof !68

68:                                               ; preds = %65
  tail call fastcc void @fbuffer_append_str(ptr noundef %6, i64 noundef %67)
  br label %69

69:                                               ; preds = %68, %65
  %70 = getelementptr inbounds nuw i8, ptr %6, i64 24
  %71 = load i64, ptr %70, align 8, !tbaa !47
  %72 = getelementptr inbounds nuw i8, ptr %6, i64 16
  %73 = load i64, ptr %72, align 8, !tbaa !56
  %74 = icmp eq i64 %71, %73
  br i1 %74, label %75, label %fbuffer_append_char.exit50, !prof !58

75:                                               ; preds = %69
  tail call fastcc void @fbuffer_do_inc_capa(ptr noundef nonnull %6, i64 noundef 1)
  %.pre.i49 = load i64, ptr %72, align 8, !tbaa !56
  br label %fbuffer_append_char.exit50

fbuffer_append_char.exit50:                       ; preds = %69, %75
  %76 = phi i64 [ %73, %69 ], [ %.pre.i49, %75 ]
  %77 = getelementptr inbounds nuw i8, ptr %6, i64 32
  %78 = load ptr, ptr %77, align 8, !tbaa !46
  %79 = getelementptr inbounds nuw i8, ptr %78, i64 %76
  store i8 58, ptr %79, align 1, !tbaa !59
  %80 = load i64, ptr %72, align 8, !tbaa !56
  %81 = add i64 %80, 1
  store i64 %81, ptr %72, align 8, !tbaa !56
  %82 = getelementptr inbounds nuw i8, ptr %8, i64 8
  %83 = load i64, ptr %82, align 8, !tbaa !26
  %.not48 = icmp eq i64 %83, 0
  br i1 %.not48, label %85, label %84, !prof !68

84:                                               ; preds = %fbuffer_append_char.exit50
  tail call fastcc void @fbuffer_append_str(ptr noundef nonnull %6, i64 noundef %83)
  br label %85

85:                                               ; preds = %84, %fbuffer_append_char.exit50
  tail call void @generate_json(ptr noundef nonnull %6, ptr noundef nonnull %5, ptr noundef nonnull %8, i64 noundef %1)
  %86 = load i32, ptr %11, align 8, !tbaa !67
  %87 = add nsw i32 %86, 1
  store i32 %87, ptr %11, align 8, !tbaa !67
  ret i32 0
}